target datalayout = "e-m:e-p270:32:32-p271:32:32-p272:64:64-i64:64-i128:128-f80:128-n8:16:32:64-S128"
target triple = "x86_64-unknown-linux-gnu"

%"class.std::__cxx11::basic_string" = type { %"struct.std::__cxx11::basic_string<char>::_Alloc_hider", i64, %union.anon }
%"struct.std::__cxx11::basic_string<char>::_Alloc_hider" = type { ptr }
%union.anon = type { i64, [8 x i8] }
%"class.std::basic_string_view" = type { i64, ptr }
%"class.google::protobuf::FileDescriptor" = type { %"class.google::protobuf::internal::SymbolBase", i8, i8, i32, ptr, ptr, ptr, i32, ptr, i32, i32, i32, i32, i32, i32, ptr, ptr, ptr, ptr, ptr, ptr, ptr, ptr, ptr, ptr, ptr, ptr }
%"class.google::protobuf::internal::SymbolBase" = type { i8 }
%"class.absl::lts_20230802::log_internal::NullStream" = type { i8 }
%"class.google::protobuf::EnumDescriptor" = type { %"class.google::protobuf::internal::SymbolBase", i8, i16, i32, ptr, ptr, ptr, ptr, ptr, ptr, ptr, i32, i32, ptr, ptr }
%"class.google::protobuf::ServiceDescriptor" = type <{ %"class.google::protobuf::internal::SymbolBase", [7 x i8], ptr, ptr, ptr, ptr, ptr, ptr, i32, [4 x i8] }>
%"class.google::protobuf::Descriptor" = type { %"class.google::protobuf::internal::SymbolBase", i8, i16, i32, ptr, ptr, ptr, ptr, ptr, ptr, ptr, ptr, ptr, ptr, ptr, ptr, ptr, ptr, i32, i32, i32, i32, i32, i32, i32, i32 }

; Function Attrs: mustprogress nounwind uwtable
define linkonce_odr hidden noundef nonnull align 1 dereferenceable(1) ptr @_ZN4absl12lts_2023080212log_internal10NullStream14InternalStreamEv(ptr noundef nonnull align 1 dereferenceable(1) %this) #5 comdat align 2 {
entry:
  %this.addr = alloca ptr, align 8
  store ptr %this, ptr %this.addr, align 8
  %this1 = load ptr, ptr %this.addr, align 8
  ret ptr %this1
}

; Function Attrs: mustprogress nounwind uwtable
define linkonce_odr hidden noundef ptr @_ZNK6google8protobuf14FileDescriptor12message_typeEi(ptr noundef nonnull align 8 dereferenceable(168) %this, i32 noundef %index) #5 comdat align 2 {
entry:
  %this.addr = alloca ptr, align 8
  %index.addr = alloca i32, align 4
  %ref.tmp = alloca %"class.absl::lts_20230802::log_internal::NullStream", align 1
  %ref.tmp4 = alloca %"class.absl::lts_20230802::log_internal::NullStream", align 1
  store ptr %this, ptr %this.addr, align 8
  store i32 %index, ptr %index.addr, align 4
  %this1 = load ptr, ptr %this.addr, align 8
  br label %while.cond

while.cond:                                       ; preds = %while.body, %entry
  br i1 false, label %while.body, label %while.end

while.body:                                       ; preds = %while.cond
  %call = call noundef nonnull align 1 dereferenceable(1) ptr @_ZN4absl12lts_2023080212log_internal10NullStream14InternalStreamEv(ptr noundef nonnull align 1 dereferenceable(1) %ref.tmp)
  br label %while.cond, !llvm.loop !14

while.end:                                        ; preds = %while.cond
  br label %while.cond2

while.cond2:                                      ; preds = %while.body3, %while.end
  br i1 false, label %while.body3, label %while.end6

while.body3:                                      ; preds = %while.cond2
  %call5 = call noundef nonnull align 1 dereferenceable(1) ptr @_ZN4absl12lts_2023080212log_internal10NullStream14InternalStreamEv(ptr noundef nonnull align 1 dereferenceable(1) %ref.tmp4)
  br label %while.cond2, !llvm.loop !15

while.end6:                                       ; preds = %while.cond2
  %message_types_ = getelementptr inbounds %"class.google::protobuf::FileDescriptor", ptr %this1, i32 0, i32 18
  %0 = load ptr, ptr %message_types_, align 8
  %1 = load i32, ptr %index.addr, align 4
  %idx.ext = sext i32 %1 to i64
  %add.ptr = getelementptr inbounds %"class.google::protobuf::Descriptor", ptr %0, i64 %idx.ext
  ret ptr %add.ptr
}

; Function Attrs: mustprogress nounwind uwtable
define linkonce_odr hidden noundef i32 @_ZNK6google8protobuf14FileDescriptor18message_type_countEv(ptr noundef nonnull align 8 dereferenceable(168) %this) #5 comdat align 2 {
entry:
  %this.addr = alloca ptr, align 8
  store ptr %this, ptr %this.addr, align 8
  %this1 = load ptr, ptr %this.addr, align 8
  %message_type_count_ = getelementptr inbounds %"class.google::protobuf::FileDescriptor", ptr %this1, i32 0, i32 12
  %0 = load i32, ptr %message_type_count_, align 4
  ret i32 %0
}

; Function Attrs: mustprogress nounwind uwtable
define linkonce_odr hidden noundef nonnull align 8 dereferenceable(32) ptr @_ZNK6google8protobuf17ServiceDescriptor4nameB5cxx11Ev(ptr noundef nonnull align 8 dereferenceable(60) %this) #5 comdat align 2 {
entry:
  %this.addr = alloca ptr, align 8
  store ptr %this, ptr %this.addr, align 8
  %this1 = load ptr, ptr %this.addr, align 8
  %all_names_ = getelementptr inbounds %"class.google::protobuf::ServiceDescriptor", ptr %this1, i32 0, i32 2
  %0 = load ptr, ptr %all_names_, align 8
  %arrayidx = getelementptr inbounds %"class.std::__cxx11::basic_string", ptr %0, i64 0
  ret ptr %arrayidx
}

; Function Attrs: mustprogress nounwind uwtable
define linkonce_odr hidden noundef ptr @_ZNK6google8protobuf14FileDescriptor7serviceEi(ptr noundef nonnull align 8 dereferenceable(168) %this, i32 noundef %index) #5 comdat align 2 {
entry:
  %this.addr = alloca ptr, align 8
  %index.addr = alloca i32, align 4
  %ref.tmp = alloca %"class.absl::lts_20230802::log_internal::NullStream", align 1
  %ref.tmp4 = alloca %"class.absl::lts_20230802::log_internal::NullStream", align 1
  store ptr %this, ptr %this.addr, align 8
  store i32 %index, ptr %index.addr, align 4
  %this1 = load ptr, ptr %this.addr, align 8
  br label %while.cond

while.cond:                                       ; preds = %while.body, %entry
  br i1 false, label %while.body, label %while.end

while.body:                                       ; preds = %while.cond
  %call = call noundef nonnull align 1 dereferenceable(1) ptr @_ZN4absl12lts_2023080212log_internal10NullStream14InternalStreamEv(ptr noundef nonnull align 1 dereferenceable(1) %ref.tmp)
  br label %while.cond, !llvm.loop !10

while.end:                                        ; preds = %while.cond
  br label %while.cond2

while.cond2:                                      ; preds = %while.body3, %while.end
  br i1 false, label %while.body3, label %while.end6

while.body3:                                      ; preds = %while.cond2
  %call5 = call noundef nonnull align 1 dereferenceable(1) ptr @_ZN4absl12lts_2023080212log_internal10NullStream14InternalStreamEv(ptr noundef nonnull align 1 dereferenceable(1) %ref.tmp4)
  br label %while.cond2, !llvm.loop !11

while.end6:                                       ; preds = %while.cond2
  %services_ = getelementptr inbounds %"class.google::protobuf::FileDescriptor", ptr %this1, i32 0, i32 20
  %0 = load ptr, ptr %services_, align 8
  %1 = load i32, ptr %index.addr, align 4
  %idx.ext = sext i32 %1 to i64
  %add.ptr = getelementptr inbounds %"class.google::protobuf::ServiceDescriptor", ptr %0, i64 %idx.ext
  ret ptr %add.ptr
}

; Function Attrs: mustprogress nounwind uwtable
define linkonce_odr hidden noundef i32 @_ZNK6google8protobuf14FileDescriptor13service_countEv(ptr noundef nonnull align 8 dereferenceable(168) %this) #5 comdat align 2 {
entry:
  %this.addr = alloca ptr, align 8
  store ptr %this, ptr %this.addr, align 8
  %this1 = load ptr, ptr %this.addr, align 8
  %service_count_ = getelementptr inbounds %"class.google::protobuf::FileDescriptor", ptr %this1, i32 0, i32 14
  %0 = load i32, ptr %service_count_, align 4
  ret i32 %0
}

; Function Attrs: mustprogress nounwind uwtable
define linkonce_odr hidden noundef nonnull align 8 dereferenceable(32) ptr @_ZNK6google8protobuf14EnumDescriptor4nameB5cxx11Ev(ptr noundef nonnull align 8 dereferenceable(88) %this) #5 comdat align 2 {
entry:
  %this.addr = alloca ptr, align 8
  store ptr %this, ptr %this.addr, align 8
  %this1 = load ptr, ptr %this.addr, align 8
  %all_names_ = getelementptr inbounds %"class.google::protobuf::EnumDescriptor", ptr %this1, i32 0, i32 4
  %0 = load ptr, ptr %all_names_, align 8
  %arrayidx = getelementptr inbounds %"class.std::__cxx11::basic_string", ptr %0, i64 0
  ret ptr %arrayidx
}

; Function Attrs: mustprogress uwtable
define linkonce_odr hidden noundef ptr @_ZNK6google8protobuf14FileDescriptor9enum_typeEi(ptr noundef nonnull align 8 dereferenceable(168) %this, i32 noundef %index) #4 comdat align 2 {
entry:
  %this.addr = alloca ptr, align 8
  %index.addr = alloca i32, align 4
  %ref.tmp = alloca %"class.absl::lts_20230802::log_internal::NullStream", align 1
  %ref.tmp4 = alloca %"class.absl::lts_20230802::log_internal::NullStream", align 1
  store ptr %this, ptr %this.addr, align 8
  store i32 %index, ptr %index.addr, align 4
  %this1 = load ptr, ptr %this.addr, align 8
  br label %while.cond

while.cond:                                       ; preds = %while.body, %entry
  br i1 false, label %while.body, label %while.end

while.body:                                       ; preds = %while.cond
  %call = call noundef nonnull align 1 dereferenceable(1) ptr @_ZN4absl12lts_2023080212log_internal10NullStream14InternalStreamEv(ptr noundef nonnull align 1 dereferenceable(1) %ref.tmp)
  br label %while.cond, !llvm.loop !8

while.end:                                        ; preds = %while.cond
  br label %while.cond2

while.cond2:                                      ; preds = %while.body3, %while.end
  br i1 false, label %while.body3, label %while.end6

while.body3:                                      ; preds = %while.cond2
  %call5 = call noundef nonnull align 1 dereferenceable(1) ptr @_ZN4absl12lts_2023080212log_internal10NullStream14InternalStreamEv(ptr noundef nonnull align 1 dereferenceable(1) %ref.tmp4)
  br label %while.cond2, !llvm.loop !9

while.end6:                                       ; preds = %while.cond2
  %enum_types_ = getelementptr inbounds %"class.google::protobuf::FileDescriptor", ptr %this1, i32 0, i32 19
  %0 = load ptr, ptr %enum_types_, align 8
  %1 = load i32, ptr %index.addr, align 4
  %idx.ext = sext i32 %1 to i64
  %add.ptr = getelementptr inbounds %"class.google::protobuf::EnumDescriptor", ptr %0, i64 %idx.ext
  ret ptr %add.ptr
}

; Function Attrs: mustprogress nounwind uwtable
define linkonce_odr hidden noundef i32 @_ZNK6google8protobuf14FileDescriptor15enum_type_countEv(ptr noundef nonnull align 8 dereferenceable(168) %this) #5 comdat align 2 {
entry:
  %this.addr = alloca ptr, align 8
  store ptr %this, ptr %this.addr, align 8
  %this1 = load ptr, ptr %this.addr, align 8
  %enum_type_count_ = getelementptr inbounds %"class.google::protobuf::FileDescriptor", ptr %this1, i32 0, i32 13
  %0 = load i32, ptr %enum_type_count_, align 8
  ret i32 %0
}

; Function Attrs: mustprogress uwtable
define hidden noundef zeroext i1 @_ZN6google8protobuf8compiler4java17ClassNameResolver23HasConflictingClassNameEPKNS0_14FileDescriptorESt17basic_string_viewIcSt11char_traitsIcEENS2_12NameEqualityE(ptr noundef nonnull align 8 dereferenceable(112) %this, ptr noundef %file, i64 %classname.coerce0, ptr %classname.coerce1, i32 noundef %equality_mode) #4 align 2 {
entry:
  %retval = alloca i1, align 1
  %classname = alloca %"class.std::basic_string_view", align 8
  %this.addr = alloca ptr, align 8
  %file.addr = alloca ptr, align 8
  %equality_mode.addr = alloca i32, align 4
  %i = alloca i32, align 4
  %agg.tmp = alloca %"class.std::basic_string_view", align 8
  %agg.tmp5 = alloca %"class.std::basic_string_view", align 8
  %i8 = alloca i32, align 4
  %agg.tmp13 = alloca %"class.std::basic_string_view", align 8
  %agg.tmp17 = alloca %"class.std::basic_string_view", align 8
  %i25 = alloca i32, align 4
  %agg.tmp31 = alloca %"class.std::basic_string_view", align 8
  %0 = getelementptr inbounds { i64, ptr }, ptr %classname, i32 0, i32 0
  store i64 %classname.coerce0, ptr %0, align 8
  %1 = getelementptr inbounds { i64, ptr }, ptr %classname, i32 0, i32 1
  store ptr %classname.coerce1, ptr %1, align 8
  store ptr %this, ptr %this.addr, align 8
  store ptr %file, ptr %file.addr, align 8
  store i32 %equality_mode, ptr %equality_mode.addr, align 4
  store i32 0, ptr %i, align 4
  br label %for.cond

for.cond:                                         ; preds = %for.inc, %entry
  %2 = load i32, ptr %i, align 4
  %3 = load ptr, ptr %file.addr, align 8
  %call = call noundef i32 @_ZNK6google8protobuf14FileDescriptor15enum_type_countEv(ptr noundef nonnull align 8 dereferenceable(168) %3)
  %cmp = icmp slt i32 %2, %call
  br i1 %cmp, label %for.body, label %for.end

for.body:                                         ; preds = %for.cond
  %4 = load ptr, ptr %file.addr, align 8
  %5 = load i32, ptr %i, align 4
  %call2 = call noundef ptr @_ZNK6google8protobuf14FileDescriptor9enum_typeEi(ptr noundef nonnull align 8 dereferenceable(168) %4, i32 noundef %5)
  %call3 = call noundef nonnull align 8 dereferenceable(32) ptr @_ZNK6google8protobuf14EnumDescriptor4nameB5cxx11Ev(ptr noundef nonnull align 8 dereferenceable(88) %call2)
  %call4 = call { i64, ptr } @_ZNKSt7__cxx1112basic_stringIcSt11char_traitsIcESaIcEEcvSt17basic_string_viewIcS2_EEv(ptr noundef nonnull align 8 dereferenceable(32) %call3) #3
  %6 = getelementptr inbounds { i64, ptr }, ptr %agg.tmp, i32 0, i32 0
  %7 = extractvalue { i64, ptr } %call4, 0
  store i64 %7, ptr %6, align 8
  %8 = getelementptr inbounds { i64, ptr }, ptr %agg.tmp, i32 0, i32 1
  %9 = extractvalue { i64, ptr } %call4, 1
  store ptr %9, ptr %8, align 8
  call void @llvm.memcpy.p0.p0.i64(ptr align 8 %agg.tmp5, ptr align 8 %classname, i64 16, i1 false)
  %10 = getelementptr inbounds { i64, ptr }, ptr %agg.tmp, i32 0, i32 0
  %11 = load i64, ptr %10, align 8
  %12 = getelementptr inbounds { i64, ptr }, ptr %agg.tmp, i32 0, i32 1
  %13 = load ptr, ptr %12, align 8
  %14 = getelementptr inbounds { i64, ptr }, ptr %agg.tmp5, i32 0, i32 0
  %15 = load i64, ptr %14, align 8
  %16 = getelementptr inbounds { i64, ptr }, ptr %agg.tmp5, i32 0, i32 1
  %17 = load ptr, ptr %16, align 8
  %call6 = call noundef i32 @_ZN6google8protobuf8compiler4java12_GLOBAL__N_117CheckNameEqualityESt17basic_string_viewIcSt11char_traitsIcEES7_(i64 %11, ptr %13, i64 %15, ptr %17)
  %18 = load i32, ptr %equality_mode.addr, align 4
  %cmp7 = icmp eq i32 %call6, %18
  br i1 %cmp7, label %if.then, label %if.end

if.then:                                          ; preds = %for.body
  store i1 true, ptr %retval, align 1
  br label %return

if.end:                                           ; preds = %for.body
  br label %for.inc

for.inc:                                          ; preds = %if.end
  %19 = load i32, ptr %i, align 4
  %inc = add nsw i32 %19, 1
  store i32 %inc, ptr %i, align 4
  br label %for.cond, !llvm.loop !4

for.end:                                          ; preds = %for.cond
  store i32 0, ptr %i8, align 4
  br label %for.cond9

for.cond9:                                        ; preds = %for.inc22, %for.end
  %20 = load i32, ptr %i8, align 4
  %21 = load ptr, ptr %file.addr, align 8
  %call10 = call noundef i32 @_ZNK6google8protobuf14FileDescriptor13service_countEv(ptr noundef nonnull align 8 dereferenceable(168) %21)
  %cmp11 = icmp slt i32 %20, %call10
  br i1 %cmp11, label %for.body12, label %for.end24

for.body12:                                       ; preds = %for.cond9
  %22 = load ptr, ptr %file.addr, align 8
  %23 = load i32, ptr %i8, align 4
  %call14 = call noundef ptr @_ZNK6google8protobuf14FileDescriptor7serviceEi(ptr noundef nonnull align 8 dereferenceable(168) %22, i32 noundef %23)
  %call15 = call noundef nonnull align 8 dereferenceable(32) ptr @_ZNK6google8protobuf17ServiceDescriptor4nameB5cxx11Ev(ptr noundef nonnull align 8 dereferenceable(60) %call14)
  %call16 = call { i64, ptr } @_ZNKSt7__cxx1112basic_stringIcSt11char_traitsIcESaIcEEcvSt17basic_string_viewIcS2_EEv(ptr noundef nonnull align 8 dereferenceable(32) %call15) #3
  %24 = getelementptr inbounds { i64, ptr }, ptr %agg.tmp13, i32 0, i32 0
  %25 = extractvalue { i64, ptr } %call16, 0
  store i64 %25, ptr %24, align 8
  %26 = getelementptr inbounds { i64, ptr }, ptr %agg.tmp13, i32 0, i32 1
  %27 = extractvalue { i64, ptr } %call16, 1
  store ptr %27, ptr %26, align 8
  call void @llvm.memcpy.p0.p0.i64(ptr align 8 %agg.tmp17, ptr align 8 %classname, i64 16, i1 false)
  %28 = getelementptr inbounds { i64, ptr }, ptr %agg.tmp13, i32 0, i32 0
  %29 = load i64, ptr %28, align 8
  %30 = getelementptr inbounds { i64, ptr }, ptr %agg.tmp13, i32 0, i32 1
  %31 = load ptr, ptr %30, align 8
  %32 = getelementptr inbounds { i64, ptr }, ptr %agg.tmp17, i32 0, i32 0
  %33 = load i64, ptr %32, align 8
  %34 = getelementptr inbounds { i64, ptr }, ptr %agg.tmp17, i32 0, i32 1
  %35 = load ptr, ptr %34, align 8
  %call18 = call noundef i32 @_ZN6google8protobuf8compiler4java12_GLOBAL__N_117CheckNameEqualityESt17basic_string_viewIcSt11char_traitsIcEES7_(i64 %29, ptr %31, i64 %33, ptr %35)
  %36 = load i32, ptr %equality_mode.addr, align 4
  %cmp19 = icmp eq i32 %call18, %36
  br i1 %cmp19, label %if.then20, label %if.end21

if.then20:                                        ; preds = %for.body12
  store i1 true, ptr %retval, align 1
  br label %return

if.end21:                                         ; preds = %for.body12
  br label %for.inc22

for.inc22:                                        ; preds = %if.end21
  %37 = load i32, ptr %i8, align 4
  %inc23 = add nsw i32 %37, 1
  store i32 %inc23, ptr %i8, align 4
  br label %for.cond9, !llvm.loop !6

for.end24:                                        ; preds = %for.cond9
  store i32 0, ptr %i25, align 4
  br label %for.cond26

for.cond26:                                       ; preds = %for.inc35, %for.end24
  %38 = load i32, ptr %i25, align 4
  %39 = load ptr, ptr %file.addr, align 8
  %call27 = call noundef i32 @_ZNK6google8protobuf14FileDescriptor18message_type_countEv(ptr noundef nonnull align 8 dereferenceable(168) %39)
  %cmp28 = icmp slt i32 %38, %call27
  br i1 %cmp28, label %for.body29, label %for.end37

for.body29:                                       ; preds = %for.cond26
  %40 = load ptr, ptr %file.addr, align 8
  %41 = load i32, ptr %i25, align 4
  %call30 = call noundef ptr @_ZNK6google8protobuf14FileDescriptor12message_typeEi(ptr noundef nonnull align 8 dereferenceable(168) %40, i32 noundef %41)
  call void @llvm.memcpy.p0.p0.i64(ptr align 8 %agg.tmp31, ptr align 8 %classname, i64 16, i1 false)
  %42 = load i32, ptr %equality_mode.addr, align 4
  %43 = getelementptr inbounds { i64, ptr }, ptr %agg.tmp31, i32 0, i32 0
  %44 = load i64, ptr %43, align 8
  %45 = getelementptr inbounds { i64, ptr }, ptr %agg.tmp31, i32 0, i32 1
  %46 = load ptr, ptr %45, align 8
  %call32 = call noundef zeroext i1 @_ZN6google8protobuf8compiler4java12_GLOBAL__N_130MessageHasConflictingClassNameEPKNS0_10DescriptorESt17basic_string_viewIcSt11char_traitsIcEENS2_12NameEqualityE(ptr noundef %call30, i64 %44, ptr %46, i32 noundef %42)
  br i1 %call32, label %if.then33, label %if.end34

if.then33:                                        ; preds = %for.body29
  store i1 true, ptr %retval, align 1
  br label %return

if.end34:                                         ; preds = %for.body29
  br label %for.inc35

for.inc35:                                        ; preds = %if.end34
  %47 = load i32, ptr %i25, align 4
  %inc36 = add nsw i32 %47, 1
  store i32 %inc36, ptr %i25, align 4
  br label %for.cond26, !llvm.loop !7

for.end37:                                        ; preds = %for.cond26
  store i1 false, ptr %retval, align 1
  br label %return

return:                                           ; preds = %for.end37, %if.then33, %if.then20, %if.then
  %48 = load i1, ptr %retval, align 1
  ret i1 %48
}