; Function Attrs: mustprogress uwtable
define hidden noundef zeroext i1 @_ZN6google8protobuf8compiler4java17ClassNameResolver23HasConflictingClassNameEPKNS0_14FileDescriptorESt17basic_string_viewIcSt11char_traitsIcEENS2_12NameEqualityE(ptr nonnull readnone align 8 captures(none) %this, ptr noundef readonly captures(none) %file, i64 %classname.coerce0, ptr %classname.coerce1, i32 noundef %equality_mode) local_unnamed_addr #3 align 2 {
entry:
  %enum_type_count_.i = getelementptr inbounds nuw i8, ptr %file, i64 64
  %0 = load i32, ptr %enum_type_count_.i, align 8
  %cmp23 = icmp sgt i32 %0, 0
  br i1 %cmp23, label %for.body.lr.ph, label %for.cond9.preheader

for.body.lr.ph:                                   ; preds = %entry
  %enum_types_.i = getelementptr inbounds nuw i8, ptr %file, i64 104
  br label %for.body

for.cond:                                         ; preds = %for.body
  %indvars.iv.next = add nuw nsw i64 %indvars.iv, 1
  %1 = load i32, ptr %enum_type_count_.i, align 8
  %2 = sext i32 %1 to i64
  %cmp = icmp slt i64 %indvars.iv.next, %2
  br i1 %cmp, label %for.body, label %for.cond9.preheader, !llvm.loop !4

for.cond9.preheader:                              ; preds = %for.cond, %entry
  %service_count_.i = getelementptr inbounds nuw i8, ptr %file, i64 68
  %3 = load i32, ptr %service_count_.i, align 4
  %cmp1125 = icmp sgt i32 %3, 0
  br i1 %cmp1125, label %for.body12.lr.ph, label %for.cond26.preheader

for.body12.lr.ph:                                 ; preds = %for.cond9.preheader
  %services_.i = getelementptr inbounds nuw i8, ptr %file, i64 112
  br label %for.body12

for.body:                                         ; preds = %for.body.lr.ph, %for.cond
  %indvars.iv = phi i64 [ 0, %for.body.lr.ph ], [ %indvars.iv.next, %for.cond ]
  %4 = load ptr, ptr %enum_types_.i, align 8
  %all_names_.i = getelementptr inbounds nuw %"class.google::protobuf::EnumDescriptor", ptr %4, i64 %indvars.iv, i32 4
  %5 = load ptr, ptr %all_names_.i, align 8
  %call4 = tail call { i64, ptr } @_ZNKSt7__cxx1112basic_stringIcSt11char_traitsIcESaIcEEcvSt17basic_string_viewIcS2_EEv(ptr noundef nonnull align 8 dereferenceable(32) %5) #18
  %6 = extractvalue { i64, ptr } %call4, 0
  %7 = extractvalue { i64, ptr } %call4, 1
  %call6 = tail call fastcc noundef i32 @_ZN6google8protobuf8compiler4java12_GLOBAL__N_117CheckNameEqualityESt17basic_string_viewIcSt11char_traitsIcEES7_(i64 %6, ptr %7, i64 %classname.coerce0, ptr %classname.coerce1)
  %cmp7 = icmp eq i32 %call6, %equality_mode
  br i1 %cmp7, label %return, label %for.cond

for.cond9:                                        ; preds = %for.body12
  %indvars.iv.next34 = add nuw nsw i64 %indvars.iv33, 1
  %8 = load i32, ptr %service_count_.i, align 4
  %9 = sext i32 %8 to i64
  %cmp11 = icmp slt i64 %indvars.iv.next34, %9
  br i1 %cmp11, label %for.body12, label %for.cond26.preheader, !llvm.loop !6

for.cond26.preheader:                             ; preds = %for.cond9, %for.cond9.preheader
  %message_type_count_.i = getelementptr inbounds nuw i8, ptr %file, i64 60
  %10 = load i32, ptr %message_type_count_.i, align 4
  %cmp2827 = icmp sgt i32 %10, 0
  br i1 %cmp2827, label %for.body29.lr.ph, label %return

for.body29.lr.ph:                                 ; preds = %for.cond26.preheader
  %message_types_.i = getelementptr inbounds nuw i8, ptr %file, i64 96
  br label %for.body29

for.body12:                                       ; preds = %for.body12.lr.ph, %for.cond9
  %indvars.iv33 = phi i64 [ 0, %for.body12.lr.ph ], [ %indvars.iv.next34, %for.cond9 ]
  %11 = load ptr, ptr %services_.i, align 8
  %all_names_.i18 = getelementptr inbounds nuw %"class.google::protobuf::ServiceDescriptor", ptr %11, i64 %indvars.iv33, i32 2
  %12 = load ptr, ptr %all_names_.i18, align 8
  %call16 = tail call { i64, ptr } @_ZNKSt7__cxx1112basic_stringIcSt11char_traitsIcESaIcEEcvSt17basic_string_viewIcS2_EEv(ptr noundef nonnull align 8 dereferenceable(32) %12) #18
  %13 = extractvalue { i64, ptr } %call16, 0
  %14 = extractvalue { i64, ptr } %call16, 1
  %call18 = tail call fastcc noundef i32 @_ZN6google8protobuf8compiler4java12_GLOBAL__N_117CheckNameEqualityESt17basic_string_viewIcSt11char_traitsIcEES7_(i64 %13, ptr %14, i64 %classname.coerce0, ptr %classname.coerce1)
  %cmp19 = icmp eq i32 %call18, %equality_mode
  br i1 %cmp19, label %return, label %for.cond9

for.cond26:                                       ; preds = %for.body29
  %indvars.iv.next37 = add nuw nsw i64 %indvars.iv36, 1
  %15 = load i32, ptr %message_type_count_.i, align 4
  %16 = sext i32 %15 to i64
  %cmp28 = icmp slt i64 %indvars.iv.next37, %16
  br i1 %cmp28, label %for.body29, label %return, !llvm.loop !7

for.body29:                                       ; preds = %for.body29.lr.ph, %for.cond26
  %indvars.iv36 = phi i64 [ 0, %for.body29.lr.ph ], [ %indvars.iv.next37, %for.cond26 ]
  %17 = load ptr, ptr %message_types_.i, align 8
  %add.ptr.i20 = getelementptr inbounds nuw %"class.google::protobuf::Descriptor", ptr %17, i64 %indvars.iv36
  %call32 = tail call fastcc noundef zeroext i1 @_ZN6google8protobuf8compiler4java12_GLOBAL__N_130MessageHasConflictingClassNameEPKNS0_10DescriptorESt17basic_string_viewIcSt11char_traitsIcEENS2_12NameEqualityE(ptr noundef %add.ptr.i20, i64 %classname.coerce0, ptr %classname.coerce1, i32 noundef %equality_mode)
  br i1 %call32, label %return, label %for.cond26

return:                                           ; preds = %for.body, %for.body12, %for.body29, %for.cond26, %for.cond26.preheader
  %retval.0 = phi i1 [ false, %for.cond26.preheader ], [ %call32, %for.cond26 ], [ %call32, %for.body29 ], [ true, %for.body12 ], [ true, %for.body ]
  ret i1 %retval.0
}